Certificate:
    Data:
        Version: 1 (0x0)
        Serial Number: 7 (0x7)
        Signature Algorithm: sha256WithRSAEncryption
        Issuer: C=JP, ST=Tokyo, O=Test Root CA, CN=Test CA/emailAddress=testca@localhost.localdomain
        Validity
            Not Before: Oct 28 02:19:55 2021 GMT
            Not After : Oct 26 02:19:55 2031 GMT
        Subject: C=JP, ST=Tokyo, O=SST, OU=test, CN=sha2.rsa2048.localdomain/emailAddress=sha2.rsa2048@localhost.localdomain
        Subject Public Key Info:
            Public Key Algorithm: rsaEncryption
                RSA Public-Key: (2048 bit)
                Modulus:
                    00:c9:83:eb:50:73:c0:a3:cd:80:d1:03:7b:d5:b1:
                    8e:cc:fe:2d:9c:96:3e:df:9b:74:fc:fb:68:1f:83:
                    ec:2b:7b:53:e6:0a:f9:58:1b:d3:ed:5b:7e:a4:0a:
                    b9:99:6f:40:9a:2a:bc:78:45:a4:d0:b4:10:78:9f:
                    65:2d:3f:81:e5:0b:99:a4:69:34:55:e7:15:bf:bd:
                    d4:d5:29:e5:77:47:94:71:03:7c:1c:a1:bf:01:9d:
                    60:8c:98:94:cd:fa:a1:35:6b:ad:8b:34:88:c8:c4:
                    0d:00:c3:28:de:a2:64:53:78:10:59:e1:74:66:a8:
                    ff:29:39:07:cd:eb:44:8b:1d:f7:ae:6f:3a:50:1f:
                    f5:56:62:79:64:59:a6:ae:cf:d7:26:c8:aa:b1:ea:
                    54:fb:5f:ee:69:02:f2:35:17:6b:40:0e:da:54:cf:
                    ba:7f:24:48:e5:1b:77:5f:be:7a:4d:74:6b:28:4a:
                    01:6d:01:c9:a6:14:fd:c3:fb:aa:f2:04:8f:14:59:
                    f6:9a:f6:5f:b3:e9:99:dd:79:b9:b2:a9:de:35:3b:
                    28:6a:22:f4:f4:5f:c2:1d:ec:01:0c:a1:cc:77:4b:
                    c6:9c:04:d3:4a:2b:88:9a:e0:fa:3b:c7:da:f3:b9:
                    20:66:87:3e:4b:f9:10:71:d0:bf:e4:2f:37:f4:4d:
                    59:7d
                Exponent: 65537 (0x10001)
    Signature Algorithm: sha256WithRSAEncryption
         2e:e8:ef:42:e0:3c:93:17:ee:fa:5c:3d:ea:c1:93:9d:5d:62:
         cd:b4:ba:ee:2b:43:e8:45:f1:cf:a2:23:c2:0f:27:77:f2:85:
         62:28:1e:dc:18:f9:eb:01:74:3f:32:cc:2c:9a:23:cd:e8:5f:
         73:a7:b1:ed:90:21:df:bb:95:8f:03:86:55:24:46:9a:9a:23:
         9e:7b:29:21:cd:8c:a9:1f:8b:81:3f:df:82:e2:e1:e2:e9:70:
         67:51:ea:9f:f2:a2:d4:b3:46:cb:5d:bb:c7:a2:82:62:b5:b4:
         53:2d:2a:be:ca:f8:8f:c0:db:a8:9d:05:78:4d:f6:f0:6a:d0:
         ab:01:37:fa:22:88:75:a3:1d:39:e9:6b:0b:d6:a2:6b:7f:6e:
         94:5f:eb:9c:2b:65:9d:1a:d1:d7:cd:92:d4:ef:7d:60:d6:af:
         0f:2d:40:9e:12:2e:20:50:71:23:12:ff:31:5c:48:16:68:29:
         0c:36:01:76:f9:4f:74:7e:98:07:57:5c:94:9c:82:0e:99:9d:
         2d:b0:83:40:34:70:8a:24:ec:5e:88:45:b9:ad:92:3d:29:a5:
         a1:1b:7a:de:13:b1:8b:8d:e5:1b:3f:1b:94:05:7b:b0:dc:b2:
         0a:f6:39:f2:e1:c8:0c:b1:60:fc:a6:f3:7f:e8:71:68:3b:b3:
         c0:b8:9c:99
-----BEGIN CERTIFICATE-----
MIIDeDCCAmACAQcwDQYJKoZIhvcNAQELBQAwczELMAkGA1UEBhMCSlAxDjAMBgNV
BAgMBVRva3lvMRUwEwYDVQQKDAxUZXN0IFJvb3QgQ0ExEDAOBgNVBAMMB1Rlc3Qg
Q0ExKzApBgkqhkiG9w0BCQEWHHRlc3RjYUBsb2NhbGhvc3QubG9jYWxkb21haW4w
HhcNMjExMDI4MDIxOTU1WhcNMzExMDI2MDIxOTU1WjCBkDELMAkGA1UEBhMCSlAx
DjAMBgNVBAgMBVRva3lvMQwwCgYDVQQKDANTU1QxDTALBgNVBAsMBHRlc3QxITAf
BgNVBAMMGHNoYTIucnNhMjA0OC5sb2NhbGRvbWFpbjExMC8GCSqGSIb3DQEJARYi
c2hhMi5yc2EyMDQ4QGxvY2FsaG9zdC5sb2NhbGRvbWFpbjCCASIwDQYJKoZIhvcN
AQEBBQADggEPADCCAQoCggEBAMmD61BzwKPNgNEDe9Wxjsz+LZyWPt+bdPz7aB+D
7Ct7U+YK+Vgb0+1bfqQKuZlvQJoqvHhFpNC0EHifZS0/geULmaRpNFXnFb+91NUp
5XdHlHEDfByhvwGdYIyYlM36oTVrrYs0iMjEDQDDKN6iZFN4EFnhdGao/yk5B83r
RIsd965vOlAf9VZieWRZpq7P1ybIqrHqVPtf7mkC8jUXa0AO2lTPun8kSOUbd1++
ek10ayhKAW0ByaYU/cP7qvIEjxRZ9pr2X7Ppmd15ubKp3jU7KGoi9PRfwh3sAQyh
zHdLxpwE00oriJrg+jvH2vO5IGaHPkv5EHHQv+QvN/RNWX0CAwEAATANBgkqhkiG
9w0BAQsFAAOCAQEALujvQuA8kxfu+lw96sGTnV1izbS67itD6EXxz6Ijwg8nd/KF
Yige3Bj56wF0PzLMLJojzehfc6ex7ZAh37uVjwOGVSRGmpojnnspIc2MqR+LgT/f
guLh4ulwZ1Hqn/Ki1LNGy127x6KCYrW0Uy0qvsr4j8DbqJ0FeE328GrQqwE3+iKI
daMdOelrC9aia39ulF/rnCtlnRrR182S1O99YNavDy1AnhIuIFBxIxL/MVxIFmgp
DDYBdvlPdH6YB1dclJyCDpmdLbCDQDRwiiTsXohFua2SPSmloRt63hOxi43lGz8b
lAV7sNyyCvY58uHIDLFg/Kbzf+hxaDuzwLicmQ==
-----END CERTIFICATE-----
